(dp0
S'transcript_stability_variant'
p1
(lp2
S'transcript_function_variant'
p3
asS'translational_product_structure_variant'
p4
(lp5
S'gene_variant'
p6
asS'transcription_variant'
p7
(lp8
g3
asS'transcript_regulatory_region_fusion'
p9
(lp10
S'feature_fusion'
p11
asS'trinucleotide_repeat_expansion'
p12
(lp13
S'short_tandem_repeat_expansion'
p14
asS'UTR_variant'
p15
(lp16
S'coding_transcript_variant'
p17
aS'exon_variant'
p18
asS'incomplete_transcript_coding_splice_variant'
p19
(lp20
S'incomplete_transcript_splice_region_variant'
p21
asS'polypeptide_post_translational_processing_variant'
p22
(lp23
S'polypeptide_function_variant'
p24
asS'lethal_variant'
p25
(lp26
S'functional_variant'
p27
asS'elongated_in_frame_polypeptide_C_terminal'
p28
(lp29
S'elongated_polypeptide_C_terminal'
p30
asS'3_prime_UTR_intron_variant'
p31
(lp32
S'coding_transcript_intron_variant'
p33
aS'3_prime_UTR_variant'
p34
asS'exonic_splice_region_variant'
p35
(lp36
S'splice_region_variant'
p37
asS'regulatory_region_amplification'
p38
(lp39
S'feature_amplification'
p40
asS'TF_binding_site_variant'
p41
(lp42
S'regulatory_region_variant'
p43
asS'3_prime_UTR_elongation'
p44
(lp45
g34
asS'start_retained_variant'
p46
(lp47
S'synonymous_variant'
p48
aS'initiator_codon_variant'
p49
asS'editing_variant'
p50
(lp51
S'transcript_processing_variant'
p52
asS'complex_change_of_translational_product_variant'
p53
(lp54
S'translational_product_function_variant'
p55
asS'polypeptide_localization_variant'
p56
(lp57
g24
asS'polypeptide_partial_loss_of_function'
p58
(lp59
S'polypeptide_loss_of_function_variant'
p60
asS'conservative_missense_variant'
p61
(lp62
S'missense_variant'
p63
asS'decreased_transcription_rate_variant'
p64
(lp65
S'rate_of_transcription_variant'
p66
asS'splice_site_variant'
p67
(lp68
S'intron_variant'
p69
aS'splicing_variant'
p70
asg33
(lp71
g69
ag17
asS'frame_restoring_variant'
p72
(lp73
S'frameshift_variant'
p74
asS'inframe_insertion'
p75
(lp76
S'internal_feature_elongation'
p77
aS'inframe_indel'
p78
asS'5_prime_UTR_premature_start_codon_loss_variant'
p79
(lp80
S'5_prime_UTR_premature_start_codon_variant'
p81
asS'intron_gain_variant'
p82
(lp83
g70
asg60
(lp84
g24
asg21
(lp85
S'incomplete_transcript_variant'
p86
asS'unidirectional_gene_fusion'
p87
(lp88
S'gene_fusion'
p89
asS'non_conservative_missense_variant'
p90
(lp91
g63
asS'increased_transcription_rate_variant'
p92
(lp93
g66
asS'loss_of_function_variant'
p94
(lp95
g27
asS'5_prime_UTR_premature_start_codon_gain_variant'
p96
(lp97
g81
asS'structural_variant'
p98
(lp99
S'sequence_variant'
p100
asg89
(lp101
g6
ag11
asS'stop_gained'
p102
(lp103
S'nonsynonymous_variant'
p104
aS'feature_truncation'
p105
asS'coding_sequence_variant'
p106
(lp107
g17
ag18
asS'decreased_transcript_level_variant'
p108
(lp109
S'level_of_transcript_variant'
p110
asS'non_coding_transcript_splice_region_variant'
p111
(lp112
g37
aS'non_coding_transcript_variant'
p113
asS'short_tandem_repeat_contraction'
p114
(lp115
S'short_tandem_repeat_change'
p116
asS'decreased_transcript_stability_variant'
p117
(lp118
g1
asg43
(lp119
S'feature_variant'
p120
asg70
(lp121
S'transcript_variant'
p122
asS'5_prime_UTR_exon_variant'
p123
(lp124
S'5_prime_UTR_variant'
p125
asS'feature_elongation'
p126
(lp127
g120
asS'mature_miRNA_variant'
p128
(lp129
g113
asS'2KB_upstream_variant'
p130
(lp131
S'upstream_gene_variant'
p132
asS'inactive_ligand_binding_site'
p133
(lp134
g60
asS'elongated_out_of_frame_polypeptide_N_terminal'
p135
(lp136
S'elongated_polypeptide_N_terminal'
p137
asg17
(lp138
g122
asg55
(lp139
g27
asg104
(lp140
S'inframe_variant'
p141
asS'inframe_deletion'
p142
(lp143
g105
ag78
asS'plus_1_frameshift_variant'
p144
(lp145
g74
asg40
(lp146
g98
asS'silent_mutation'
p147
(lp148
g120
asS'transcript_amplification'
p149
(lp150
g40
asg49
(lp151
g106
asg14
(lp152
g116
asS'2KB_downstream_variant'
p153
(lp154
S'downstream_gene_variant'
p155
asS'frameshift_elongation'
p156
(lp157
g74
ag77
asS'rare_amino_acid_variant'
p158
(lp159
g90
asS'transcript_secondary_structure_variant'
p160
(lp161
g122
asg3
(lp162
g27
asg24
(lp163
g55
asg110
(lp164
g3
asS'protein_altering_variant'
p165
(lp166
g106
asg66
(lp167
g7
asS'NMD_transcript_variant'
p168
(lp169
g122
asS'feature_ablation'
p170
(lp171
g98
asS'500B_downstream_variant'
p172
(lp173
g155
asS'conservative_inframe_deletion'
p174
(lp175
g142
asS'conserved_intergenic_variant'
p176
(lp177
S'intergenic_variant'
p178
asS'amino_acid_substitution'
p179
(lp180
S'polypeptide_sequence_variant'
p181
asg141
(lp182
g165
asS'increased_polyadenylation_variant'
p183
(lp184
S'polyadenylation_variant'
p185
asS'TFBS_ablation'
p186
(lp187
S'regulatory_region_ablation'
p188
asS'5_prime_UTR_truncation'
p189
(lp190
g125
asS'polypeptide_gain_of_function_variant'
p191
(lp192
g24
asS'transcript_translocation'
p193
(lp194
S'feature_translocation'
p195
asS'incomplete_transcript_intronic_variant'
p196
(lp197
g86
asS'frameshift_truncation'
p198
(lp199
g74
ag105
asS'inactive_catalytic_site'
p200
(lp201
g133
asg188
(lp202
g170
asS'TFBS_amplification'
p203
(lp204
g38
asS'conservative_inframe_insertion'
p205
(lp206
g75
asS'compensatory_transcript_secondary_structure_variant'
p207
(lp208
g160
asS'incomplete_transcript_5UTR_variant'
p209
(lp210
g86
asS'conserved_intron_variant'
p211
(lp212
g69
asS'elongated_polypeptide'
p213
(lp214
g181
asg137
(lp215
g213
asS'minus_1_frameshift_variant'
p216
(lp217
g74
asg116
(lp218
S'sequence_length_variant'
p219
asS'incomplete_terminal_codon_variant'
p220
(lp221
g141
aS'terminator_codon_variant'
p222
asS'decreased_translational_product_level'
p223
(lp224
S'translational_product_level_variant'
p225
asS'amino_acid_deletion'
p226
(lp227
g181
asS'3_prime_UTR_exon_variant'
p228
(lp229
g34
asS'incomplete_transcript_3UTR_variant'
p230
(lp231
g86
asS'complex_transcript_variant'
p232
(lp233
g122
asg11
(lp234
g98
asS'regulatory_region_translocation'
p235
(lp236
g195
asS'upstream_transcript_variant'
p237
(lp238
g178
asS'structural_interaction_variant'
p239
(lp240
S'3D_polypeptide_structure_variant'
p241
asg185
(lp242
g52
asg178
(lp243
g120
asg120
(lp244
g98
asS'selenocysteine_loss'
p245
(lp246
g158
asS'splice_donor_5th_base_variant'
p247
(lp248
g67
asg52
(lp249
g3
asg105
(lp250
g120
asS'five_prime_UTR_premature_start_codon_location_variant'
p251
(lp252
g81
asg195
(lp253
g98
asS'5_prime_UTR_elongation'
p254
(lp255
g125
asS'minus_2_frameshift_variant'
p256
(lp257
g74
asS'stop_retained_variant'
p258
(lp259
g48
ag222
asS'downstream_transcript_variant'
p260
(lp261
g178
asg122
(lp262
g6
asS'5KB_upstream_variant'
p263
(lp264
g132
asg222
(lp265
g106
asg86
(lp266
g122
asg219
(lp267
g98
asg6
(lp268
g120
asg132
(lp269
g178
asS'pyrrolysine_loss'
p270
(lp271
g158
asS'elongated_in_frame_polypeptide_N_terminal_elongation'
p272
(lp273
g137
asS'start_lost'
p274
(lp275
g104
ag49
asS'intergenic_1kb_variant'
p276
(lp277
g178
asS'genic_upstream_transcript_variant'
p278
(lp279
g6
asS'polypeptide_truncation'
p280
(lp281
g181
asS'gain_of_function_variant'
p282
(lp283
g27
asS'increased_transcript_stability_variant'
p284
(lp285
g1
asg69
(lp286
g122
asg37
(lp287
g70
asS'cryptic_splice_site_variant'
p288
(lp289
g70
asS'plus_2_frameshift_variant'
p290
(lp291
g74
asS'splice_acceptor_variant'
p292
(lp293
g67
asg225
(lp294
g55
asS'transcript_fusion'
p295
(lp296
g11
asS'cryptic_splice_acceptor'
p297
(lp298
g288
asS'amino_acid_insertion'
p299
(lp300
g181
asg81
(lp301
g125
asg155
(lp302
g178
asS'cryptic_splice_donor'
p303
(lp304
g288
asS'non_conservative_amino_acid_substitution'
p305
(lp306
g179
asS'non_coding_transcript_exon_variant'
p307
(lp308
g113
ag18
asS'increased_transcript_level_variant'
p309
(lp310
g110
asS'non_coding_transcript_intron_variant'
p311
(lp312
g69
ag113
asS'increased_translational_product_level'
p313
(lp314
g225
asS'genic_downstream_transcript_variant'
p315
(lp316
g6
asS'elongated_out_of_frame_polypeptide_C_terminal'
p317
(lp318
g30
asS'dominant_negative_variant'
p319
(lp320
g27
asS'incomplete_transcript_exonic_variant'
p321
(lp322
g86
asS'disruptive_inframe_deletion'
p323
(lp324
g142
asS'disruptive_inframe_insertion'
p325
(lp326
g75
asS'incomplete_transcript_CDS'
p327
(lp328
g86
asS'copy_number_increase'
p329
(lp330
S'copy_number_change'
p331
asS'exon_loss_variant'
p332
(lp333
g70
asS'splice_donor_variant'
p334
(lp335
g67
asg30
(lp336
g213
asS'complex_3D_structural_variant'
p337
(lp338
g241
asS'5_prime_UTR_intron_variant'
p339
(lp340
g33
ag125
asS'stop_lost'
p341
(lp342
g104
ag126
ag222
asg113
(lp343
g122
asS'loss_of_heterozygosity'
p344
(lp345
g27
asg18
(lp346
g122
asS'polypeptide_fusion'
p347
(lp348
g181
asg27
(lp349
g100
asS'copy_number_decrease'
p350
(lp351
g331
asg125
(lp352
g15
asg331
(lp353
g219
asS'TFBS_translocation'
p354
(lp355
g235
asS'conservative_amino_acid_substitution'
p356
(lp357
g179
asS'extended_intronic_splice_region_variant'
p358
(lp359
g70
asS'TFBS_fusion'
p360
(lp361
S'regulatory_region_fusion'
p362
asS'intragenic_variant'
p363
(lp364
g122
asS'3_prime_UTR_truncation'
p365
(lp366
g34
asg78
(lp367
g141
asS'null_mutation'
p368
(lp369
g27
asS'conformational_change_variant'
p370
(lp371
g241
asg241
(lp372
g55
asS'5KB_downstream_variant'
p373
(lp374
g155
asg362
(lp375
g11
asg74
(lp376
g165
asg34
(lp377
g15
asS'bidirectional_gene_fusion'
p378
(lp379
g89
asS'transcript_ablation'
p380
(lp381
g170
asg63
(lp382
g104
asg181
(lp383
g4
asS'decreased_polyadenylation_variant'
p384
(lp385
g185
asg77
(lp386
g126
asg48
(lp387
g106
as.